; Function Attrs: nounwind uwtable
define hidden i32 @mbedtls_rsa_deduce_private_exponent(ptr noundef %0, ptr noundef %1, ptr noundef %2, ptr noundef %3) local_unnamed_addr #0 {
  %5 = alloca %struct.mbedtls_mpi, align 8
  %6 = alloca %struct.mbedtls_mpi, align 8
  call void @llvm.lifetime.start.p0(i64 16, ptr nonnull %5) #3
  call void @llvm.lifetime.start.p0(i64 16, ptr nonnull %6) #3
  %7 = icmp eq ptr %3, null
  br i1 %7, label %32, label %8

8:                                                ; preds = %4
  %9 = tail call i32 @mbedtls_mpi_cmp_int(ptr noundef nonnull %3, i64 noundef 0) #3
  %.not = icmp eq i32 %9, 0
  br i1 %.not, label %10, label %32

10:                                               ; preds = %8
  %11 = tail call i32 @mbedtls_mpi_cmp_int(ptr noundef %0, i64 noundef 1) #3
  %12 = icmp slt i32 %11, 1
  br i1 %12, label %32, label %13

13:                                               ; preds = %10
  %14 = tail call i32 @mbedtls_mpi_cmp_int(ptr noundef %1, i64 noundef 1) #3
  %15 = icmp slt i32 %14, 1
  br i1 %15, label %32, label %16

16:                                               ; preds = %13
  %17 = tail call i32 @mbedtls_mpi_cmp_int(ptr noundef %2, i64 noundef 0) #3
  %18 = icmp eq i32 %17, 0
  br i1 %18, label %32, label %19

19:                                               ; preds = %16
  call void @mbedtls_mpi_init(ptr noundef nonnull %5) #3
  call void @mbedtls_mpi_init(ptr noundef nonnull %6) #3
  %20 = call i32 @mbedtls_mpi_sub_int(ptr noundef nonnull %5, ptr noundef %0, i64 noundef 1) #3
  %.not19 = icmp eq i32 %20, 0
  br i1 %.not19, label %21, label %31

21:                                               ; preds = %19
  %22 = call i32 @mbedtls_mpi_sub_int(ptr noundef nonnull %6, ptr noundef %1, i64 noundef 1) #3
  %.not20 = icmp eq i32 %22, 0
  br i1 %.not20, label %23, label %31

23:                                               ; preds = %21
  %24 = call i32 @mbedtls_mpi_gcd(ptr noundef nonnull %3, ptr noundef nonnull %5, ptr noundef nonnull %6) #3
  %.not21 = icmp eq i32 %24, 0
  br i1 %.not21, label %25, label %31

25:                                               ; preds = %23
  %26 = call i32 @mbedtls_mpi_mul_mpi(ptr noundef nonnull %5, ptr noundef nonnull %5, ptr noundef nonnull %6) #3
  %.not22 = icmp eq i32 %26, 0
  br i1 %.not22, label %27, label %31

27:                                               ; preds = %25
  %28 = call i32 @mbedtls_mpi_div_mpi(ptr noundef nonnull %5, ptr noundef null, ptr noundef nonnull %5, ptr noundef nonnull %3) #3
  %.not23 = icmp eq i32 %28, 0
  br i1 %.not23, label %29, label %31

29:                                               ; preds = %27
  %30 = call i32 @mbedtls_mpi_inv_mod(ptr noundef nonnull %3, ptr noundef %2, ptr noundef nonnull %5) #3
  br label %31

31:                                               ; preds = %29, %27, %25, %23, %21, %19
  %.0 = phi i32 [ %20, %19 ], [ %22, %21 ], [ %24, %23 ], [ %26, %25 ], [ %28, %27 ], [ %30, %29 ]
  call void @mbedtls_mpi_free(ptr noundef nonnull %5) #3
  call void @mbedtls_mpi_free(ptr noundef nonnull %6) #3
  br label %32

32:                                               ; preds = %10, %13, %16, %4, %8, %31
  %.012 = phi i32 [ %.0, %31 ], [ -4, %8 ], [ -4, %4 ], [ -4, %16 ], [ -4, %13 ], [ -4, %10 ]
  call void @llvm.lifetime.end.p0(i64 16, ptr nonnull %6) #3
  call void @llvm.lifetime.end.p0(i64 16, ptr nonnull %5) #3
  ret i32 %.012
}